; Function Attrs: nounwind uwtable
define internal range(i32 -1163346256, 1) i32 @voc_write_header(ptr noundef %0) #0 {
  %2 = getelementptr inbounds nuw i8, ptr %0, i64 32
  %3 = load ptr, ptr %2, align 8, !tbaa !4
  %4 = getelementptr inbounds nuw i8, ptr %0, i64 48
  %5 = load ptr, ptr %4, align 8, !tbaa !24
  %6 = load ptr, ptr %5, align 8, !tbaa !25
  %7 = getelementptr inbounds nuw i8, ptr %6, i64 16
  %8 = load ptr, ptr %7, align 8, !tbaa !27
  %9 = getelementptr inbounds nuw i8, ptr %0, i64 44
  %10 = load i32, ptr %9, align 4, !tbaa !34
  %.not = icmp eq i32 %10, 1
  br i1 %.not, label %11, label %21

11:                                               ; preds = %1
  %12 = load i32, ptr %8, align 8, !tbaa !35
  %.not11 = icmp eq i32 %12, 1
  br i1 %.not11, label %13, label %21

13:                                               ; preds = %11
  %14 = getelementptr inbounds nuw i8, ptr %8, i64 8
  %15 = load i32, ptr %14, align 8, !tbaa !38
  %.not12 = icmp eq i32 %15, 0
  br i1 %.not12, label %16, label %20

16:                                               ; preds = %13
  %17 = getelementptr inbounds nuw i8, ptr %8, i64 4
  %18 = load i32, ptr %17, align 4, !tbaa !39
  %.not13 = icmp eq i32 %18, 65541
  br i1 %.not13, label %20, label %19

19:                                               ; preds = %16
  tail call void (ptr, i32, ptr, ...) @av_log(ptr noundef nonnull %0, i32 noundef 16, ptr noundef nonnull @.str.3) #2
  br label %21

20:                                               ; preds = %16, %13
  tail call void @avio_write(ptr noundef %3, ptr noundef nonnull @ff_voc_magic, i32 noundef 20) #2
  tail call void @avio_wl16(ptr noundef %3, i32 noundef 26) #2
  tail call void @avio_wl16(ptr noundef %3, i32 noundef 276) #2
  tail call void @avio_wl16(ptr noundef %3, i32 noundef 4383) #2
  br label %21

21:                                               ; preds = %1, %11, %20, %19
  %.0 = phi i32 [ 0, %20 ], [ -22, %19 ], [ -1163346256, %11 ], [ -1163346256, %1 ]
  ret i32 %.0
}